target datalayout = "e-m:e-p270:32:32-p271:32:32-p272:64:64-i64:64-i128:128-f80:128-n8:16:32:64-S128"
target triple = "x86_64-pc-linux-gnu"

%"struct.Yosys::RTLIL::IdString" = type { i32 }
%"class.std::vector.5" = type { %"struct.std::_Vector_base.6" }
%"struct.std::_Vector_base.6" = type { %"struct.std::_Vector_base<int, std::allocator<int>>::_Vector_impl" }
%"struct.std::_Vector_base<int, std::allocator<int>>::_Vector_impl" = type { %"struct.std::_Vector_base<int, std::allocator<int>>::_Vector_impl_data" }
%"struct.std::_Vector_base<int, std::allocator<int>>::_Vector_impl_data" = type { ptr, ptr, ptr }
%"struct.Yosys::hashlib::hash_ops" = type { i8 }
%"struct.Yosys::RTLIL::SigSpec" = type { i32, i64, %"class.std::vector", %"class.std::vector.0" }
%"class.std::vector" = type { %"struct.std::_Vector_base" }
%"struct.std::_Vector_base" = type { %"struct.std::_Vector_base<Yosys::RTLIL::SigChunk, std::allocator<Yosys::RTLIL::SigChunk>>::_Vector_impl" }
%"struct.std::_Vector_base<Yosys::RTLIL::SigChunk, std::allocator<Yosys::RTLIL::SigChunk>>::_Vector_impl" = type { %"struct.std::_Vector_base<Yosys::RTLIL::SigChunk, std::allocator<Yosys::RTLIL::SigChunk>>::_Vector_impl_data" }
%"struct.std::_Vector_base<Yosys::RTLIL::SigChunk, std::allocator<Yosys::RTLIL::SigChunk>>::_Vector_impl_data" = type { ptr, ptr, ptr }
%"class.std::vector.0" = type { %"struct.std::_Vector_base.1" }
%"struct.std::_Vector_base.1" = type { %"struct.std::_Vector_base<Yosys::RTLIL::SigBit, std::allocator<Yosys::RTLIL::SigBit>>::_Vector_impl" }
%"struct.std::_Vector_base<Yosys::RTLIL::SigBit, std::allocator<Yosys::RTLIL::SigBit>>::_Vector_impl" = type { %"struct.std::_Vector_base<Yosys::RTLIL::SigBit, std::allocator<Yosys::RTLIL::SigBit>>::_Vector_impl_data" }
%"struct.std::_Vector_base<Yosys::RTLIL::SigBit, std::allocator<Yosys::RTLIL::SigBit>>::_Vector_impl_data" = type { ptr, ptr, ptr }
%"struct.Yosys::RTLIL::Cell" = type { %"struct.Yosys::RTLIL::AttrObject", i32, ptr, %"struct.Yosys::RTLIL::IdString", %"struct.Yosys::RTLIL::IdString", %"class.Yosys::hashlib::dict.15", %"class.Yosys::hashlib::dict" }
%"struct.Yosys::RTLIL::AttrObject" = type { %"class.Yosys::hashlib::dict" }
%"class.Yosys::hashlib::dict.15" = type <{ %"class.std::vector.5", %"class.std::vector.16", %"struct.Yosys::hashlib::hash_ops", [7 x i8] }>
%"class.std::vector.16" = type { %"struct.std::_Vector_base.17" }
%"struct.std::_Vector_base.17" = type { %"struct.std::_Vector_base<Yosys::hashlib::dict<Yosys::RTLIL::IdString, Yosys::RTLIL::SigSpec>::entry_t, std::allocator<Yosys::hashlib::dict<Yosys::RTLIL::IdString, Yosys::RTLIL::SigSpec>::entry_t>>::_Vector_impl" }
%"struct.std::_Vector_base<Yosys::hashlib::dict<Yosys::RTLIL::IdString, Yosys::RTLIL::SigSpec>::entry_t, std::allocator<Yosys::hashlib::dict<Yosys::RTLIL::IdString, Yosys::RTLIL::SigSpec>::entry_t>>::_Vector_impl" = type { %"struct.std::_Vector_base<Yosys::hashlib::dict<Yosys::RTLIL::IdString, Yosys::RTLIL::SigSpec>::entry_t, std::allocator<Yosys::hashlib::dict<Yosys::RTLIL::IdString, Yosys::RTLIL::SigSpec>::entry_t>>::_Vector_impl_data" }
%"struct.std::_Vector_base<Yosys::hashlib::dict<Yosys::RTLIL::IdString, Yosys::RTLIL::SigSpec>::entry_t, std::allocator<Yosys::hashlib::dict<Yosys::RTLIL::IdString, Yosys::RTLIL::SigSpec>::entry_t>>::_Vector_impl_data" = type { ptr, ptr, ptr }
%"class.Yosys::hashlib::dict" = type <{ %"class.std::vector.5", %"class.std::vector.10", %"struct.Yosys::hashlib::hash_ops", [7 x i8] }>
%"class.std::vector.10" = type { %"struct.std::_Vector_base.11" }
%"struct.std::_Vector_base.11" = type { %"struct.std::_Vector_base<Yosys::hashlib::dict<Yosys::RTLIL::IdString, Yosys::RTLIL::Const>::entry_t, std::allocator<Yosys::hashlib::dict<Yosys::RTLIL::IdString, Yosys::RTLIL::Const>::entry_t>>::_Vector_impl" }
%"struct.std::_Vector_base<Yosys::hashlib::dict<Yosys::RTLIL::IdString, Yosys::RTLIL::Const>::entry_t, std::allocator<Yosys::hashlib::dict<Yosys::RTLIL::IdString, Yosys::RTLIL::Const>::entry_t>>::_Vector_impl" = type { %"struct.std::_Vector_base<Yosys::hashlib::dict<Yosys::RTLIL::IdString, Yosys::RTLIL::Const>::entry_t, std::allocator<Yosys::hashlib::dict<Yosys::RTLIL::IdString, Yosys::RTLIL::Const>::entry_t>>::_Vector_impl_data" }
%"struct.std::_Vector_base<Yosys::hashlib::dict<Yosys::RTLIL::IdString, Yosys::RTLIL::Const>::entry_t, std::allocator<Yosys::hashlib::dict<Yosys::RTLIL::IdString, Yosys::RTLIL::Const>::entry_t>>::_Vector_impl_data" = type { ptr, ptr, ptr }
%"struct.std::pair" = type { %"struct.Yosys::RTLIL::SigSpec", %"struct.Yosys::RTLIL::SigSpec" }

@_ZN5Yosys5RTLIL2ID1AE = external global %"struct.Yosys::RTLIL::IdString", align 4
@_ZN5Yosys5RTLIL2ID1YE = external global %"struct.Yosys::RTLIL::IdString", align 4
@_ZN5Yosys5RTLIL2ID8A_SIGNEDE = external global %"struct.Yosys::RTLIL::IdString", align 4

; Function Attrs: mustprogress nounwind uwtable
define linkonce_odr noundef i32 @_ZNK5Yosys5RTLIL7SigSpec4sizeEv(ptr noundef nonnull align 8 dereferenceable(64) %0) #5 comdat align 2 {
  %2 = alloca ptr, align 8
  store ptr %0, ptr %2, align 8
  %3 = load ptr, ptr %2, align 8
  %4 = getelementptr inbounds %"struct.Yosys::RTLIL::SigSpec", ptr %3, i32 0, i32 0
  %5 = load i32, ptr %4, align 8
  ret i32 %5
}

; Function Attrs: mustprogress uwtable
define linkonce_odr void @_ZNSt4pairIN5Yosys5RTLIL7SigSpecES2_EC2IRS2_S5_TnNSt9enable_ifIXaaclsr5_PCCPE22_MoveConstructiblePairIT_T0_EEclsr5_PCCPE30_ImplicitlyMoveConvertiblePairIS7_S8_EEEbE4typeELb1EEEOS7_OS8_(ptr noundef nonnull align 8 dereferenceable(128) %0, ptr noundef nonnull align 8 dereferenceable(64) %1, ptr noundef nonnull align 8 dereferenceable(64) %2) unnamed_addr #4 comdat align 2 personality ptr @__gxx_personality_v0 {
  %4 = alloca ptr, align 8
  %5 = alloca ptr, align 8
  %6 = alloca ptr, align 8
  %7 = alloca ptr, align 8
  %8 = alloca i32, align 4
  store ptr %0, ptr %4, align 8
  store ptr %1, ptr %5, align 8
  store ptr %2, ptr %6, align 8
  %9 = load ptr, ptr %4, align 8
  %10 = getelementptr inbounds %"struct.std::pair", ptr %9, i32 0, i32 0
  %11 = load ptr, ptr %5, align 8
  call void @_ZN5Yosys5RTLIL7SigSpecC2ERKS1_(ptr noundef nonnull align 8 dereferenceable(64) %10, ptr noundef nonnull align 8 dereferenceable(64) %11)
  %12 = getelementptr inbounds %"struct.std::pair", ptr %9, i32 0, i32 1
  %13 = load ptr, ptr %6, align 8
  invoke void @_ZN5Yosys5RTLIL7SigSpecC2ERKS1_(ptr noundef nonnull align 8 dereferenceable(64) %12, ptr noundef nonnull align 8 dereferenceable(64) %13)
          to label %14 unwind label %15

14:                                               ; preds = %3
  ret void

15:                                               ; preds = %3
  %16 = landingpad { ptr, i32 }
          cleanup
  %17 = extractvalue { ptr, i32 } %16, 0
  store ptr %17, ptr %7, align 8
  %18 = extractvalue { ptr, i32 } %16, 1
  store i32 %18, ptr %8, align 4
  call void @_ZN5Yosys5RTLIL7SigSpecD2Ev(ptr noundef nonnull align 8 dereferenceable(64) %10) #3
  br label %19

19:                                               ; preds = %15
  %20 = load ptr, ptr %7, align 8
  %21 = load i32, ptr %8, align 4
  %22 = insertvalue { ptr, i32 } poison, ptr %20, 0
  %23 = insertvalue { ptr, i32 } %22, i32 %21, 1
  resume { ptr, i32 } %23
}

; Function Attrs: mustprogress nounwind uwtable
define linkonce_odr noundef i32 @_ZN5Yosys7GetSizeINS_5RTLIL7SigSpecEEEiRKT_(ptr noundef nonnull align 8 dereferenceable(64) %0) #5 comdat {
  %2 = alloca ptr, align 8
  store ptr %0, ptr %2, align 8
  %3 = load ptr, ptr %2, align 8
  %4 = call noundef i32 @_ZNK5Yosys5RTLIL7SigSpec4sizeEv(ptr noundef nonnull align 8 dereferenceable(64) %3)
  ret i32 %4
}

; Function Attrs: mustprogress uwtable
define void @_ZN5Yosys13simplemap_posEPNS_5RTLIL6ModuleEPNS0_4CellE(ptr noundef %0, ptr noundef %1) #4 personality ptr @__gxx_personality_v0 {
  %3 = alloca ptr, align 8
  %4 = alloca ptr, align 8
  %5 = alloca %"struct.Yosys::RTLIL::SigSpec", align 8
  %6 = alloca %"struct.Yosys::RTLIL::SigSpec", align 8
  %7 = alloca ptr, align 8
  %8 = alloca i32, align 4
  %9 = alloca %"struct.std::pair", align 8
  store ptr %0, ptr %3, align 8
  store ptr %1, ptr %4, align 8
  %10 = load ptr, ptr %4, align 8
  %11 = call noundef nonnull align 8 dereferenceable(64) ptr @_ZNK5Yosys5RTLIL4Cell7getPortERKNS0_8IdStringE(ptr noundef nonnull align 8 dereferenceable(192) %10, ptr noundef nonnull align 4 dereferenceable(4) @_ZN5Yosys5RTLIL2ID1AE)
  call void @_ZN5Yosys5RTLIL7SigSpecC2ERKS1_(ptr noundef nonnull align 8 dereferenceable(64) %5, ptr noundef nonnull align 8 dereferenceable(64) %11)
  %12 = load ptr, ptr %4, align 8
  %13 = invoke noundef nonnull align 8 dereferenceable(64) ptr @_ZNK5Yosys5RTLIL4Cell7getPortERKNS0_8IdStringE(ptr noundef nonnull align 8 dereferenceable(192) %12, ptr noundef nonnull align 4 dereferenceable(4) @_ZN5Yosys5RTLIL2ID1YE)
          to label %14 unwind label %28

14:                                               ; preds = %2
  invoke void @_ZN5Yosys5RTLIL7SigSpecC2ERKS1_(ptr noundef nonnull align 8 dereferenceable(64) %6, ptr noundef nonnull align 8 dereferenceable(64) %13)
          to label %15 unwind label %28

15:                                               ; preds = %14
  %16 = invoke noundef i32 @_ZN5Yosys7GetSizeINS_5RTLIL7SigSpecEEEiRKT_(ptr noundef nonnull align 8 dereferenceable(64) %6)
          to label %17 unwind label %32

17:                                               ; preds = %15
  %18 = load ptr, ptr %4, align 8
  %19 = getelementptr inbounds %"struct.Yosys::RTLIL::Cell", ptr %18, i32 0, i32 6
  %20 = invoke noundef nonnull align 8 dereferenceable(32) ptr @_ZN5Yosys7hashlib4dictINS_5RTLIL8IdStringENS2_5ConstENS0_8hash_opsIS3_EEE2atERKS3_(ptr noundef nonnull align 8 dereferenceable(49) %19, ptr noundef nonnull align 4 dereferenceable(4) @_ZN5Yosys5RTLIL2ID8A_SIGNEDE)
          to label %21 unwind label %32

21:                                               ; preds = %17
  %22 = invoke noundef zeroext i1 @_ZNK5Yosys5RTLIL5Const7as_boolEv(ptr noundef nonnull align 8 dereferenceable(32) %20)
          to label %23 unwind label %32

23:                                               ; preds = %21
  invoke void @_ZN5Yosys5RTLIL7SigSpec9extend_u0Eib(ptr noundef nonnull align 8 dereferenceable(64) %5, i32 noundef %16, i1 noundef zeroext %22)
          to label %24 unwind label %32

24:                                               ; preds = %23
  %25 = load ptr, ptr %3, align 8
  invoke void @_ZNSt4pairIN5Yosys5RTLIL7SigSpecES2_EC2IRS2_S5_TnNSt9enable_ifIXaaclsr5_PCCPE22_MoveConstructiblePairIT_T0_EEclsr5_PCCPE30_ImplicitlyMoveConvertiblePairIS7_S8_EEEbE4typeELb1EEEOS7_OS8_(ptr noundef nonnull align 8 dereferenceable(128) %9, ptr noundef nonnull align 8 dereferenceable(64) %6, ptr noundef nonnull align 8 dereferenceable(64) %5)
          to label %26 unwind label %32

26:                                               ; preds = %24
  invoke void @_ZN5Yosys5RTLIL6Module7connectERKSt4pairINS0_7SigSpecES3_E(ptr noundef nonnull align 8 dereferenceable(560) %25, ptr noundef nonnull align 8 dereferenceable(128) %9)
          to label %27 unwind label %36

27:                                               ; preds = %26
  call void @_ZNSt4pairIN5Yosys5RTLIL7SigSpecES2_ED2Ev(ptr noundef nonnull align 8 dereferenceable(128) %9) #3
  call void @_ZN5Yosys5RTLIL7SigSpecD2Ev(ptr noundef nonnull align 8 dereferenceable(64) %6) #3
  call void @_ZN5Yosys5RTLIL7SigSpecD2Ev(ptr noundef nonnull align 8 dereferenceable(64) %5) #3
  ret void

28:                                               ; preds = %14, %2
  %29 = landingpad { ptr, i32 }
          cleanup
  %30 = extractvalue { ptr, i32 } %29, 0
  store ptr %30, ptr %7, align 8
  %31 = extractvalue { ptr, i32 } %29, 1
  store i32 %31, ptr %8, align 4
  br label %41

32:                                               ; preds = %24, %23, %21, %17, %15
  %33 = landingpad { ptr, i32 }
          cleanup
  %34 = extractvalue { ptr, i32 } %33, 0
  store ptr %34, ptr %7, align 8
  %35 = extractvalue { ptr, i32 } %33, 1
  store i32 %35, ptr %8, align 4
  br label %40

36:                                               ; preds = %26
  %37 = landingpad { ptr, i32 }
          cleanup
  %38 = extractvalue { ptr, i32 } %37, 0
  store ptr %38, ptr %7, align 8
  %39 = extractvalue { ptr, i32 } %37, 1
  store i32 %39, ptr %8, align 4
  call void @_ZNSt4pairIN5Yosys5RTLIL7SigSpecES2_ED2Ev(ptr noundef nonnull align 8 dereferenceable(128) %9) #3
  br label %40

40:                                               ; preds = %36, %32
  call void @_ZN5Yosys5RTLIL7SigSpecD2Ev(ptr noundef nonnull align 8 dereferenceable(64) %6) #3
  br label %41

41:                                               ; preds = %40, %28
  call void @_ZN5Yosys5RTLIL7SigSpecD2Ev(ptr noundef nonnull align 8 dereferenceable(64) %5) #3
  br label %42

42:                                               ; preds = %41
  %43 = load ptr, ptr %7, align 8
  %44 = load i32, ptr %8, align 4
  %45 = insertvalue { ptr, i32 } poison, ptr %43, 0
  %46 = insertvalue { ptr, i32 } %45, i32 %44, 1
  resume { ptr, i32 } %46
}