; Function Attrs: mustprogress uwtable
define void @_ZN5Yosys13simplemap_posEPNS_5RTLIL6ModuleEPNS0_4CellE(ptr noundef %0, ptr noundef nonnull %1) #3 personality ptr @__gxx_personality_v0 {
  %3 = alloca %"struct.Yosys::RTLIL::SigSpec", align 8
  %4 = alloca %"struct.Yosys::RTLIL::SigSpec", align 8
  %5 = alloca %"struct.std::pair", align 8
  %6 = tail call noundef nonnull align 8 dereferenceable(64) ptr @_ZNK5Yosys5RTLIL4Cell7getPortERKNS0_8IdStringE(ptr noundef nonnull align 8 dereferenceable(192) %1, ptr noundef nonnull align 4 dereferenceable(4) @_ZN5Yosys5RTLIL2ID1AE)
  call void @_ZN5Yosys5RTLIL7SigSpecC2ERKS1_(ptr noundef nonnull align 8 dereferenceable(64) %3, ptr noundef nonnull align 8 dereferenceable(64) %6)
  %7 = invoke noundef nonnull align 8 dereferenceable(64) ptr @_ZNK5Yosys5RTLIL4Cell7getPortERKNS0_8IdStringE(ptr noundef nonnull align 8 dereferenceable(192) %1, ptr noundef nonnull align 4 dereferenceable(4) @_ZN5Yosys5RTLIL2ID1YE)
          to label %8 unwind label %47

8:                                                ; preds = %2
  invoke void @_ZN5Yosys5RTLIL7SigSpecC2ERKS1_(ptr noundef nonnull align 8 dereferenceable(64) %4, ptr noundef nonnull align 8 dereferenceable(64) %7)
          to label %9 unwind label %47

9:                                                ; preds = %8
  %10 = load i32, ptr %4, align 8
  %11 = getelementptr inbounds i8, ptr %1, i64 136
  %12 = invoke noundef nonnull align 8 dereferenceable(32) ptr @_ZN5Yosys7hashlib4dictINS_5RTLIL8IdStringENS2_5ConstENS0_8hash_opsIS3_EEE2atERKS3_(ptr noundef nonnull align 8 dereferenceable(49) %11, ptr noundef nonnull align 4 dereferenceable(4) @_ZN5Yosys5RTLIL2ID8A_SIGNEDE)
          to label %13 unwind label %49

13:                                               ; preds = %9
  %14 = invoke noundef zeroext i1 @_ZNK5Yosys5RTLIL5Const7as_boolEv(ptr noundef nonnull align 8 dereferenceable(32) %12)
          to label %15 unwind label %49

15:                                               ; preds = %13
  invoke void @_ZN5Yosys5RTLIL7SigSpec9extend_u0Eib(ptr noundef nonnull align 8 dereferenceable(64) %3, i32 noundef %10, i1 noundef zeroext %14)
          to label %16 unwind label %49

16:                                               ; preds = %15
  invoke void @_ZN5Yosys5RTLIL7SigSpecC2ERKS1_(ptr noundef nonnull align 8 dereferenceable(64) %5, ptr noundef nonnull align 8 dereferenceable(64) %4)
          to label %.noexc unwind label %49

.noexc:                                           ; preds = %16
  %17 = getelementptr inbounds i8, ptr %5, i64 64
  invoke void @_ZN5Yosys5RTLIL7SigSpecC2ERKS1_(ptr noundef nonnull align 8 dereferenceable(64) %17, ptr noundef nonnull align 8 dereferenceable(64) %3)
          to label %_ZNSt4pairIN5Yosys5RTLIL7SigSpecES2_EC2IRS2_S5_TnNSt9enable_ifIXaaclsr5_PCCPE22_MoveConstructiblePairIT_T0_EEclsr5_PCCPE30_ImplicitlyMoveConvertiblePairIS7_S8_EEEbE4typeELb1EEEOS7_OS8_.exit unwind label %18

18:                                               ; preds = %.noexc
  %19 = landingpad { ptr, i32 }
          cleanup
  call void @_ZN5Yosys5RTLIL7SigSpecD2Ev(ptr noundef nonnull align 8 dereferenceable(64) %5) #17
  br label %.body

_ZNSt4pairIN5Yosys5RTLIL7SigSpecES2_EC2IRS2_S5_TnNSt9enable_ifIXaaclsr5_PCCPE22_MoveConstructiblePairIT_T0_EEclsr5_PCCPE30_ImplicitlyMoveConvertiblePairIS7_S8_EEEbE4typeELb1EEEOS7_OS8_.exit: ; preds = %.noexc
  invoke void @_ZN5Yosys5RTLIL6Module7connectERKSt4pairINS0_7SigSpecES3_E(ptr noundef nonnull align 8 dereferenceable(560) %0, ptr noundef nonnull align 8 dereferenceable(128) %5)
          to label %20 unwind label %51

20:                                               ; preds = %_ZNSt4pairIN5Yosys5RTLIL7SigSpecES2_EC2IRS2_S5_TnNSt9enable_ifIXaaclsr5_PCCPE22_MoveConstructiblePairIT_T0_EEclsr5_PCCPE30_ImplicitlyMoveConvertiblePairIS7_S8_EEEbE4typeELb1EEEOS7_OS8_.exit
  call void @_ZNSt4pairIN5Yosys5RTLIL7SigSpecES2_ED2Ev(ptr noundef nonnull align 8 dereferenceable(128) %5) #17
  %21 = getelementptr inbounds i8, ptr %4, i64 40
  %22 = load ptr, ptr %21, align 8
  %.not.i.i.i.i = icmp eq ptr %22, null
  br i1 %.not.i.i.i.i, label %_ZNSt6vectorIN5Yosys5RTLIL6SigBitESaIS2_EED2Ev.exit.i, label %23

23:                                               ; preds = %20
  call void @_ZdlPv(ptr noundef nonnull %22) #20
  br label %_ZNSt6vectorIN5Yosys5RTLIL6SigBitESaIS2_EED2Ev.exit.i

_ZNSt6vectorIN5Yosys5RTLIL6SigBitESaIS2_EED2Ev.exit.i: ; preds = %23, %20
  %24 = getelementptr inbounds i8, ptr %4, i64 16
  %25 = load ptr, ptr %24, align 8
  %26 = getelementptr inbounds i8, ptr %4, i64 24
  %27 = load ptr, ptr %26, align 8
  %.not4.i.i.i.i.i = icmp eq ptr %25, %27
  br i1 %.not4.i.i.i.i.i, label %_ZSt8_DestroyIPN5Yosys5RTLIL8SigChunkES2_EvT_S4_RSaIT0_E.exit.i.i, label %.lr.ph.i.i.i.i.i

.lr.ph.i.i.i.i.i:                                 ; preds = %_ZNSt6vectorIN5Yosys5RTLIL6SigBitESaIS2_EED2Ev.exit.i, %_ZSt8_DestroyIN5Yosys5RTLIL8SigChunkEEvPT_.exit.i.i.i.i.i
  %.05.i.i.i.i.i = phi ptr [ %31, %_ZSt8_DestroyIN5Yosys5RTLIL8SigChunkEEvPT_.exit.i.i.i.i.i ], [ %25, %_ZNSt6vectorIN5Yosys5RTLIL6SigBitESaIS2_EED2Ev.exit.i ]
  %28 = getelementptr inbounds i8, ptr %.05.i.i.i.i.i, i64 8
  %29 = load ptr, ptr %28, align 8
  %.not.i.i.i.i.i.i.i.i.i.i = icmp eq ptr %29, null
  br i1 %.not.i.i.i.i.i.i.i.i.i.i, label %_ZSt8_DestroyIN5Yosys5RTLIL8SigChunkEEvPT_.exit.i.i.i.i.i, label %30

30:                                               ; preds = %.lr.ph.i.i.i.i.i
  call void @_ZdlPv(ptr noundef nonnull %29) #20
  br label %_ZSt8_DestroyIN5Yosys5RTLIL8SigChunkEEvPT_.exit.i.i.i.i.i

_ZSt8_DestroyIN5Yosys5RTLIL8SigChunkEEvPT_.exit.i.i.i.i.i: ; preds = %30, %.lr.ph.i.i.i.i.i
  %31 = getelementptr inbounds i8, ptr %.05.i.i.i.i.i, i64 40
  %.not.i.i.i.i.i = icmp eq ptr %31, %27
  br i1 %.not.i.i.i.i.i, label %_ZSt8_DestroyIPN5Yosys5RTLIL8SigChunkES2_EvT_S4_RSaIT0_E.exitthread-pre-split.i.i, label %.lr.ph.i.i.i.i.i, !llvm.loop !10

_ZSt8_DestroyIPN5Yosys5RTLIL8SigChunkES2_EvT_S4_RSaIT0_E.exitthread-pre-split.i.i: ; preds = %_ZSt8_DestroyIN5Yosys5RTLIL8SigChunkEEvPT_.exit.i.i.i.i.i
  %.pr.i.i = load ptr, ptr %24, align 8
  br label %_ZSt8_DestroyIPN5Yosys5RTLIL8SigChunkES2_EvT_S4_RSaIT0_E.exit.i.i

_ZSt8_DestroyIPN5Yosys5RTLIL8SigChunkES2_EvT_S4_RSaIT0_E.exit.i.i: ; preds = %_ZSt8_DestroyIPN5Yosys5RTLIL8SigChunkES2_EvT_S4_RSaIT0_E.exitthread-pre-split.i.i, %_ZNSt6vectorIN5Yosys5RTLIL6SigBitESaIS2_EED2Ev.exit.i
  %32 = phi ptr [ %.pr.i.i, %_ZSt8_DestroyIPN5Yosys5RTLIL8SigChunkES2_EvT_S4_RSaIT0_E.exitthread-pre-split.i.i ], [ %25, %_ZNSt6vectorIN5Yosys5RTLIL6SigBitESaIS2_EED2Ev.exit.i ]
  %.not.i.i.i1.i = icmp eq ptr %32, null
  br i1 %.not.i.i.i1.i, label %_ZN5Yosys5RTLIL7SigSpecD2Ev.exit, label %33

33:                                               ; preds = %_ZSt8_DestroyIPN5Yosys5RTLIL8SigChunkES2_EvT_S4_RSaIT0_E.exit.i.i
  call void @_ZdlPv(ptr noundef nonnull %32) #20
  br label %_ZN5Yosys5RTLIL7SigSpecD2Ev.exit

_ZN5Yosys5RTLIL7SigSpecD2Ev.exit:                 ; preds = %_ZSt8_DestroyIPN5Yosys5RTLIL8SigChunkES2_EvT_S4_RSaIT0_E.exit.i.i, %33
  %34 = getelementptr inbounds i8, ptr %3, i64 40
  %35 = load ptr, ptr %34, align 8
  %.not.i.i.i.i9 = icmp eq ptr %35, null
  br i1 %.not.i.i.i.i9, label %_ZNSt6vectorIN5Yosys5RTLIL6SigBitESaIS2_EED2Ev.exit.i10, label %36

36:                                               ; preds = %_ZN5Yosys5RTLIL7SigSpecD2Ev.exit
  call void @_ZdlPv(ptr noundef nonnull %35) #20
  br label %_ZNSt6vectorIN5Yosys5RTLIL6SigBitESaIS2_EED2Ev.exit.i10

_ZNSt6vectorIN5Yosys5RTLIL6SigBitESaIS2_EED2Ev.exit.i10: ; preds = %36, %_ZN5Yosys5RTLIL7SigSpecD2Ev.exit
  %37 = getelementptr inbounds i8, ptr %3, i64 16
  %38 = load ptr, ptr %37, align 8
  %39 = getelementptr inbounds i8, ptr %3, i64 24
  %40 = load ptr, ptr %39, align 8
  %.not4.i.i.i.i.i11 = icmp eq ptr %38, %40
  br i1 %.not4.i.i.i.i.i11, label %_ZSt8_DestroyIPN5Yosys5RTLIL8SigChunkES2_EvT_S4_RSaIT0_E.exit.i.i19, label %.lr.ph.i.i.i.i.i12

.lr.ph.i.i.i.i.i12:                               ; preds = %_ZNSt6vectorIN5Yosys5RTLIL6SigBitESaIS2_EED2Ev.exit.i10, %_ZSt8_DestroyIN5Yosys5RTLIL8SigChunkEEvPT_.exit.i.i.i.i.i15
  %.05.i.i.i.i.i13 = phi ptr [ %44, %_ZSt8_DestroyIN5Yosys5RTLIL8SigChunkEEvPT_.exit.i.i.i.i.i15 ], [ %38, %_ZNSt6vectorIN5Yosys5RTLIL6SigBitESaIS2_EED2Ev.exit.i10 ]
  %41 = getelementptr inbounds i8, ptr %.05.i.i.i.i.i13, i64 8
  %42 = load ptr, ptr %41, align 8
  %.not.i.i.i.i.i.i.i.i.i.i14 = icmp eq ptr %42, null
  br i1 %.not.i.i.i.i.i.i.i.i.i.i14, label %_ZSt8_DestroyIN5Yosys5RTLIL8SigChunkEEvPT_.exit.i.i.i.i.i15, label %43

43:                                               ; preds = %.lr.ph.i.i.i.i.i12
  call void @_ZdlPv(ptr noundef nonnull %42) #20
  br label %_ZSt8_DestroyIN5Yosys5RTLIL8SigChunkEEvPT_.exit.i.i.i.i.i15

_ZSt8_DestroyIN5Yosys5RTLIL8SigChunkEEvPT_.exit.i.i.i.i.i15: ; preds = %43, %.lr.ph.i.i.i.i.i12
  %44 = getelementptr inbounds i8, ptr %.05.i.i.i.i.i13, i64 40
  %.not.i.i.i.i.i16 = icmp eq ptr %44, %40
  br i1 %.not.i.i.i.i.i16, label %_ZSt8_DestroyIPN5Yosys5RTLIL8SigChunkES2_EvT_S4_RSaIT0_E.exitthread-pre-split.i.i17, label %.lr.ph.i.i.i.i.i12, !llvm.loop !10

_ZSt8_DestroyIPN5Yosys5RTLIL8SigChunkES2_EvT_S4_RSaIT0_E.exitthread-pre-split.i.i17: ; preds = %_ZSt8_DestroyIN5Yosys5RTLIL8SigChunkEEvPT_.exit.i.i.i.i.i15
  %.pr.i.i18 = load ptr, ptr %37, align 8
  br label %_ZSt8_DestroyIPN5Yosys5RTLIL8SigChunkES2_EvT_S4_RSaIT0_E.exit.i.i19

_ZSt8_DestroyIPN5Yosys5RTLIL8SigChunkES2_EvT_S4_RSaIT0_E.exit.i.i19: ; preds = %_ZSt8_DestroyIPN5Yosys5RTLIL8SigChunkES2_EvT_S4_RSaIT0_E.exitthread-pre-split.i.i17, %_ZNSt6vectorIN5Yosys5RTLIL6SigBitESaIS2_EED2Ev.exit.i10
  %45 = phi ptr [ %.pr.i.i18, %_ZSt8_DestroyIPN5Yosys5RTLIL8SigChunkES2_EvT_S4_RSaIT0_E.exitthread-pre-split.i.i17 ], [ %38, %_ZNSt6vectorIN5Yosys5RTLIL6SigBitESaIS2_EED2Ev.exit.i10 ]
  %.not.i.i.i1.i20 = icmp eq ptr %45, null
  br i1 %.not.i.i.i1.i20, label %_ZN5Yosys5RTLIL7SigSpecD2Ev.exit21, label %46

46:                                               ; preds = %_ZSt8_DestroyIPN5Yosys5RTLIL8SigChunkES2_EvT_S4_RSaIT0_E.exit.i.i19
  call void @_ZdlPv(ptr noundef nonnull %45) #20
  br label %_ZN5Yosys5RTLIL7SigSpecD2Ev.exit21

_ZN5Yosys5RTLIL7SigSpecD2Ev.exit21:               ; preds = %_ZSt8_DestroyIPN5Yosys5RTLIL8SigChunkES2_EvT_S4_RSaIT0_E.exit.i.i19, %46
  ret void

47:                                               ; preds = %8, %2
  %48 = landingpad { ptr, i32 }
          cleanup
  br label %53

49:                                               ; preds = %16, %15, %13, %9
  %50 = landingpad { ptr, i32 }
          cleanup
  br label %.body

51:                                               ; preds = %_ZNSt4pairIN5Yosys5RTLIL7SigSpecES2_EC2IRS2_S5_TnNSt9enable_ifIXaaclsr5_PCCPE22_MoveConstructiblePairIT_T0_EEclsr5_PCCPE30_ImplicitlyMoveConvertiblePairIS7_S8_EEEbE4typeELb1EEEOS7_OS8_.exit
  %52 = landingpad { ptr, i32 }
          cleanup
  call void @_ZNSt4pairIN5Yosys5RTLIL7SigSpecES2_ED2Ev(ptr noundef nonnull align 8 dereferenceable(128) %5) #17
  br label %.body

.body:                                            ; preds = %49, %18, %51
  %.pn = phi { ptr, i32 } [ %52, %51 ], [ %50, %49 ], [ %19, %18 ]
  call void @_ZN5Yosys5RTLIL7SigSpecD2Ev(ptr noundef nonnull align 8 dereferenceable(64) %4) #17
  br label %53

53:                                               ; preds = %.body, %47
  %.pn.pn = phi { ptr, i32 } [ %.pn, %.body ], [ %48, %47 ]
  call void @_ZN5Yosys5RTLIL7SigSpecD2Ev(ptr noundef nonnull align 8 dereferenceable(64) %3) #17
  resume { ptr, i32 } %.pn.pn
}